target datalayout = "e-m:e-p270:32:32-p271:32:32-p272:64:64-i64:64-i128:128-f80:128-n8:16:32:64-S128"
target triple = "x86_64-unknown-linux-gnu"

%"class.icu_75::UnicodeSet" = type <{ %"class.icu_75::UnicodeFilter", ptr, i32, i32, i8, [7 x i8], ptr, ptr, i32, [4 x i8], ptr, i32, [4 x i8], ptr, ptr, [25 x i32], [4 x i8] }>
%"class.icu_75::UnicodeFilter" = type { %"class.icu_75::UnicodeFunctor", %"class.icu_75::UnicodeMatcher" }
%"class.icu_75::UnicodeFunctor" = type { %"class.icu_75::UObject" }
%"class.icu_75::UObject" = type { ptr }
%"class.icu_75::UnicodeMatcher" = type { ptr }
%"class.icu_75::UVector" = type { %"class.icu_75::UObject", i32, i32, ptr, ptr, ptr }
%"class.icu_75::UnicodeSetStringSpan" = type { [8 x i8], %"class.icu_75::UnicodeSet", ptr, ptr, ptr, ptr, ptr, i32, i32, i32, i8, [32 x i32] }

; Function Attrs: mustprogress nounwind uwtable
define linkonce_odr noundef signext i8 @_ZNK6icu_757UVector7isEmptyEv(ptr noundef nonnull align 8 dereferenceable(40) %this) #0 comdat align 2 {
entry:
  %this.addr = alloca ptr, align 8
  store ptr %this, ptr %this.addr, align 8
  %this1 = load ptr, ptr %this.addr, align 8
  %count = getelementptr inbounds %"class.icu_75::UVector", ptr %this1, i32 0, i32 1
  %0 = load i32, ptr %count, align 8
  %cmp = icmp eq i32 %0, 0
  %conv = zext i1 %cmp to i8
  ret i8 %conv
}

; Function Attrs: mustprogress nounwind uwtable
define linkonce_odr noundef signext i8 @_ZN6icu_7520UnicodeSetStringSpan20needsStringSpanUTF16Ev(ptr noundef nonnull align 8 dereferenceable(392) %this) #0 comdat align 2 {
entry:
  %this.addr = alloca ptr, align 8
  store ptr %this, ptr %this.addr, align 8
  %this1 = load ptr, ptr %this.addr, align 8
  %maxLength16 = getelementptr inbounds %"class.icu_75::UnicodeSetStringSpan", ptr %this1, i32 0, i32 8
  %0 = load i32, ptr %maxLength16, align 4
  %cmp = icmp ne i32 %0, 0
  %conv = zext i1 %cmp to i8
  ret i8 %conv
}

; Function Attrs: mustprogress uwtable
define noundef signext i8 @_ZNK6icu_7510UnicodeSet10hasStringsEv(ptr noundef nonnull align 8 dereferenceable(200) %this) #1 align 2 {
entry:
  %this.addr = alloca ptr, align 8
  store ptr %this, ptr %this.addr, align 8
  %this1 = load ptr, ptr %this.addr, align 8
  %strings = getelementptr inbounds %"class.icu_75::UnicodeSet", ptr %this1, i32 0, i32 13
  %0 = load ptr, ptr %strings, align 8
  %cmp = icmp ne ptr %0, null
  br i1 %cmp, label %land.rhs, label %land.end

land.rhs:                                         ; preds = %entry
  %strings2 = getelementptr inbounds %"class.icu_75::UnicodeSet", ptr %this1, i32 0, i32 13
  %1 = load ptr, ptr %strings2, align 8
  %call = call noundef signext i8 @_ZNK6icu_757UVector7isEmptyEv(ptr noundef nonnull align 8 dereferenceable(40) %1)
  %tobool = icmp ne i8 %call, 0
  %lnot = xor i1 %tobool, true
  br label %land.end

land.end:                                         ; preds = %land.rhs, %entry
  %2 = phi i1 [ false, %entry ], [ %lnot, %land.rhs ]
  %conv = zext i1 %2 to i8
  ret i8 %conv
}

; Function Attrs: mustprogress nounwind uwtable
define linkonce_odr noundef signext i8 @_ZNK6icu_7510UnicodeSet7isBogusEv(ptr noundef nonnull align 8 dereferenceable(200) %this) #0 comdat align 2 {
entry:
  %this.addr = alloca ptr, align 8
  store ptr %this, ptr %this.addr, align 8
  %this1 = load ptr, ptr %this.addr, align 8
  %fFlags = getelementptr inbounds %"class.icu_75::UnicodeSet", ptr %this1, i32 0, i32 4
  %0 = load i8, ptr %fFlags, align 8
  %conv = zext i8 %0 to i32
  %and = and i32 %conv, 1
  %conv2 = trunc i32 %and to i8
  ret i8 %conv2
}

; Function Attrs: mustprogress nounwind uwtable
define linkonce_odr noundef signext i8 @_ZNK6icu_7510UnicodeSet8isFrozenEv(ptr noundef nonnull align 8 dereferenceable(200) %this) #0 comdat align 2 {
entry:
  %this.addr = alloca ptr, align 8
  store ptr %this, ptr %this.addr, align 8
  %this1 = load ptr, ptr %this.addr, align 8
  %bmpSet = getelementptr inbounds %"class.icu_75::UnicodeSet", ptr %this1, i32 0, i32 6
  %0 = load ptr, ptr %bmpSet, align 8
  %cmp = icmp ne ptr %0, null
  br i1 %cmp, label %lor.end, label %lor.rhs

lor.rhs:                                          ; preds = %entry
  %stringSpan = getelementptr inbounds %"class.icu_75::UnicodeSet", ptr %this1, i32 0, i32 14
  %1 = load ptr, ptr %stringSpan, align 8
  %cmp2 = icmp ne ptr %1, null
  br label %lor.end

lor.end:                                          ; preds = %lor.rhs, %entry
  %2 = phi i1 [ true, %entry ], [ %cmp2, %lor.rhs ]
  %conv = zext i1 %2 to i8
  ret i8 %conv
}

; Function Attrs: mustprogress uwtable
define noundef ptr @_ZN6icu_7510UnicodeSet6freezeEv(ptr noundef nonnull align 8 dereferenceable(200) %this) #1 align 2 personality ptr @__gxx_personality_v0 {
entry:
  %retval = alloca ptr, align 8
  %this.addr = alloca ptr, align 8
  %saved-rvalue = alloca ptr, align 8
  %cleanup.cond = alloca i1, align 1
  %exn.slot = alloca ptr, align 8
  %ehselector.slot = alloca i32, align 4
  %saved-rvalue25 = alloca ptr, align 8
  %cleanup.cond26 = alloca i1, align 1
  store ptr %this, ptr %this.addr, align 8
  %this1 = load ptr, ptr %this.addr, align 8
  %call = call noundef signext i8 @_ZNK6icu_7510UnicodeSet8isFrozenEv(ptr noundef nonnull align 8 dereferenceable(200) %this1)
  %tobool = icmp ne i8 %call, 0
  br i1 %tobool, label %if.end38, label %land.lhs.true

land.lhs.true:                                    ; preds = %entry
  %call2 = call noundef signext i8 @_ZNK6icu_7510UnicodeSet7isBogusEv(ptr noundef nonnull align 8 dereferenceable(200) %this1)
  %tobool3 = icmp ne i8 %call2, 0
  br i1 %tobool3, label %if.end38, label %if.then

if.then:                                          ; preds = %land.lhs.true
  %call4 = call noundef nonnull align 8 dereferenceable(200) ptr @_ZN6icu_7510UnicodeSet7compactEv(ptr noundef nonnull align 8 dereferenceable(200) %this1)
  %call5 = call noundef signext i8 @_ZNK6icu_7510UnicodeSet10hasStringsEv(ptr noundef nonnull align 8 dereferenceable(200) %this1)
  %tobool6 = icmp ne i8 %call5, 0
  br i1 %tobool6, label %if.then7, label %if.end18

if.then7:                                         ; preds = %if.then
  %call8 = call noundef ptr @_ZN6icu_757UMemorynwEm(i64 noundef 392) #12
  %new.isnull = icmp eq ptr %call8, null
  store i1 false, ptr %cleanup.cond, align 1
  br i1 %new.isnull, label %new.cont, label %new.notnull

new.notnull:                                      ; preds = %if.then7
  store ptr %call8, ptr %saved-rvalue, align 8
  store i1 true, ptr %cleanup.cond, align 1
  %strings = getelementptr inbounds %"class.icu_75::UnicodeSet", ptr %this1, i32 0, i32 13
  %0 = load ptr, ptr %strings, align 8
  invoke void @_ZN6icu_7520UnicodeSetStringSpanC1ERKNS_10UnicodeSetERKNS_7UVectorEj(ptr noundef nonnull align 8 dereferenceable(392) %call8, ptr noundef nonnull align 8 dereferenceable(200) %this1, ptr noundef nonnull align 8 dereferenceable(40) %0, i32 noundef 63)
          to label %invoke.cont unwind label %lpad

invoke.cont:                                      ; preds = %new.notnull
  br label %new.cont

new.cont:                                         ; preds = %invoke.cont, %if.then7
  %1 = phi ptr [ %call8, %invoke.cont ], [ null, %if.then7 ]
  %stringSpan = getelementptr inbounds %"class.icu_75::UnicodeSet", ptr %this1, i32 0, i32 14
  store ptr %1, ptr %stringSpan, align 8
  %stringSpan9 = getelementptr inbounds %"class.icu_75::UnicodeSet", ptr %this1, i32 0, i32 14
  %2 = load ptr, ptr %stringSpan9, align 8
  %cmp = icmp eq ptr %2, null
  br i1 %cmp, label %if.then10, label %if.else

if.then10:                                        ; preds = %new.cont
  call void @_ZN6icu_7510UnicodeSet10setToBogusEv(ptr noundef nonnull align 8 dereferenceable(200) %this1)
  store ptr %this1, ptr %retval, align 8
  br label %return

lpad:                                             ; preds = %new.notnull
  %3 = landingpad { ptr, i32 }
          cleanup
  %4 = extractvalue { ptr, i32 } %3, 0
  store ptr %4, ptr %exn.slot, align 8
  %5 = extractvalue { ptr, i32 } %3, 1
  store i32 %5, ptr %ehselector.slot, align 4
  %cleanup.is_active = load i1, ptr %cleanup.cond, align 1
  br i1 %cleanup.is_active, label %cleanup.action, label %cleanup.done

cleanup.action:                                   ; preds = %lpad
  %6 = load ptr, ptr %saved-rvalue, align 8
  call void @_ZN6icu_757UMemorydlEPv(ptr noundef %6) #12
  br label %cleanup.done

cleanup.done:                                     ; preds = %cleanup.action, %lpad
  br label %eh.resume

if.else:                                          ; preds = %new.cont
  %stringSpan11 = getelementptr inbounds %"class.icu_75::UnicodeSet", ptr %this1, i32 0, i32 14
  %7 = load ptr, ptr %stringSpan11, align 8
  %call12 = call noundef signext i8 @_ZN6icu_7520UnicodeSetStringSpan20needsStringSpanUTF16Ev(ptr noundef nonnull align 8 dereferenceable(392) %7)
  %tobool13 = icmp ne i8 %call12, 0
  br i1 %tobool13, label %if.end, label %if.then14

if.then14:                                        ; preds = %if.else
  %stringSpan15 = getelementptr inbounds %"class.icu_75::UnicodeSet", ptr %this1, i32 0, i32 14
  %8 = load ptr, ptr %stringSpan15, align 8
  %isnull = icmp eq ptr %8, null
  br i1 %isnull, label %delete.end, label %delete.notnull

delete.notnull:                                   ; preds = %if.then14
  call void @_ZN6icu_7520UnicodeSetStringSpanD1Ev(ptr noundef nonnull align 8 dereferenceable(392) %8) #12
  call void @_ZN6icu_757UMemorydlEPv(ptr noundef %8) #12
  br label %delete.end

delete.end:                                       ; preds = %delete.notnull, %if.then14
  %stringSpan16 = getelementptr inbounds %"class.icu_75::UnicodeSet", ptr %this1, i32 0, i32 14
  store ptr null, ptr %stringSpan16, align 8
  br label %if.end

if.end:                                           ; preds = %delete.end, %if.else
  br label %if.end17

if.end17:                                         ; preds = %if.end
  br label %if.end18

if.end18:                                         ; preds = %if.end17, %if.then
  %stringSpan19 = getelementptr inbounds %"class.icu_75::UnicodeSet", ptr %this1, i32 0, i32 14
  %9 = load ptr, ptr %stringSpan19, align 8
  %cmp20 = icmp eq ptr %9, null
  br i1 %cmp20, label %if.then21, label %if.end37

if.then21:                                        ; preds = %if.end18
  %call22 = call noundef ptr @_ZN6icu_757UMemorynwEm(i64 noundef 872) #12
  %new.isnull23 = icmp eq ptr %call22, null
  store i1 false, ptr %cleanup.cond26, align 1
  br i1 %new.isnull23, label %new.cont32, label %new.notnull24

new.notnull24:                                    ; preds = %if.then21
  store ptr %call22, ptr %saved-rvalue25, align 8
  store i1 true, ptr %cleanup.cond26, align 1
  %list = getelementptr inbounds %"class.icu_75::UnicodeSet", ptr %this1, i32 0, i32 1
  %10 = load ptr, ptr %list, align 8
  %len = getelementptr inbounds %"class.icu_75::UnicodeSet", ptr %this1, i32 0, i32 3
  %11 = load i32, ptr %len, align 4
  invoke void @_ZN6icu_756BMPSetC1EPKii(ptr noundef nonnull align 8 dereferenceable(868) %call22, ptr noundef %10, i32 noundef %11)
          to label %invoke.cont28 unwind label %lpad27

invoke.cont28:                                    ; preds = %new.notnull24
  br label %new.cont32

new.cont32:                                       ; preds = %invoke.cont28, %if.then21
  %12 = phi ptr [ %call22, %invoke.cont28 ], [ null, %if.then21 ]
  %bmpSet = getelementptr inbounds %"class.icu_75::UnicodeSet", ptr %this1, i32 0, i32 6
  store ptr %12, ptr %bmpSet, align 8
  %bmpSet33 = getelementptr inbounds %"class.icu_75::UnicodeSet", ptr %this1, i32 0, i32 6
  %13 = load ptr, ptr %bmpSet33, align 8
  %cmp34 = icmp eq ptr %13, null
  br i1 %cmp34, label %if.then35, label %if.end36

if.then35:                                        ; preds = %new.cont32
  call void @_ZN6icu_7510UnicodeSet10setToBogusEv(ptr noundef nonnull align 8 dereferenceable(200) %this1)
  br label %if.end36

lpad27:                                           ; preds = %new.notnull24
  %14 = landingpad { ptr, i32 }
          cleanup
  %15 = extractvalue { ptr, i32 } %14, 0
  store ptr %15, ptr %exn.slot, align 8
  %16 = extractvalue { ptr, i32 } %14, 1
  store i32 %16, ptr %ehselector.slot, align 4
  %cleanup.is_active29 = load i1, ptr %cleanup.cond26, align 1
  br i1 %cleanup.is_active29, label %cleanup.action30, label %cleanup.done31

cleanup.action30:                                 ; preds = %lpad27
  %17 = load ptr, ptr %saved-rvalue25, align 8
  call void @_ZN6icu_757UMemorydlEPv(ptr noundef %17) #12
  br label %cleanup.done31

cleanup.done31:                                   ; preds = %cleanup.action30, %lpad27
  br label %eh.resume

if.end36:                                         ; preds = %if.then35, %new.cont32
  br label %if.end37

if.end37:                                         ; preds = %if.end36, %if.end18
  br label %if.end38

if.end38:                                         ; preds = %if.end37, %land.lhs.true, %entry
  store ptr %this1, ptr %retval, align 8
  br label %return

return:                                           ; preds = %if.end38, %if.then10
  %18 = load ptr, ptr %retval, align 8
  ret ptr %18

eh.resume:                                        ; preds = %cleanup.done31, %cleanup.done
  %exn = load ptr, ptr %exn.slot, align 8
  %sel = load i32, ptr %ehselector.slot, align 4
  %lpad.val = insertvalue { ptr, i32 } poison, ptr %exn, 0
  %lpad.val39 = insertvalue { ptr, i32 } %lpad.val, i32 %sel, 1
  resume { ptr, i32 } %lpad.val39
}