; Function Attrs: mustprogress uwtable
define noundef nonnull ptr @_ZN6icu_7510UnicodeSet6freezeEv(ptr noundef nonnull returned align 8 dereferenceable(200) %this) local_unnamed_addr #1 align 2 personality ptr @__gxx_personality_v0 {
entry:
  %bmpSet.i = getelementptr inbounds i8, ptr %this, i64 40
  %0 = load ptr, ptr %bmpSet.i, align 8
  %cmp.not.i = icmp eq ptr %0, null
  %stringSpan.i = getelementptr inbounds i8, ptr %this, i64 88
  %1 = load ptr, ptr %stringSpan.i, align 8
  %cmp2.i = icmp eq ptr %1, null
  %narrow.i.not = select i1 %cmp.not.i, i1 %cmp2.i, i1 false
  br i1 %narrow.i.not, label %land.lhs.true, label %return

land.lhs.true:                                    ; preds = %entry
  %fFlags.i = getelementptr inbounds i8, ptr %this, i64 32
  %2 = load i8, ptr %fFlags.i, align 8
  %3 = and i8 %2, 1
  %tobool3.not = icmp eq i8 %3, 0
  br i1 %tobool3.not, label %if.then, label %return

if.then:                                          ; preds = %land.lhs.true
  %call4 = tail call noundef nonnull align 8 dereferenceable(200) ptr @_ZN6icu_7510UnicodeSet7compactEv(ptr noundef nonnull align 8 dereferenceable(200) %this)
  %strings.i = getelementptr inbounds i8, ptr %this, i64 80
  %4 = load ptr, ptr %strings.i, align 8
  %cmp.not.i3 = icmp eq ptr %4, null
  br i1 %cmp.not.i3, label %if.end18, label %_ZNK6icu_7510UnicodeSet10hasStringsEv.exit

_ZNK6icu_7510UnicodeSet10hasStringsEv.exit:       ; preds = %if.then
  %count.i.i = getelementptr inbounds i8, ptr %4, i64 8
  %5 = load i32, ptr %count.i.i, align 8
  %cmp.i.i.not = icmp eq i32 %5, 0
  br i1 %cmp.i.i.not, label %if.end18, label %if.then7

if.then7:                                         ; preds = %_ZNK6icu_7510UnicodeSet10hasStringsEv.exit
  %call8 = tail call noundef ptr @_ZN6icu_757UMemorynwEm(i64 noundef 392) #22
  %new.isnull = icmp eq ptr %call8, null
  br i1 %new.isnull, label %if.then10, label %new.notnull

new.notnull:                                      ; preds = %if.then7
  %6 = load ptr, ptr %strings.i, align 8
  invoke void @_ZN6icu_7520UnicodeSetStringSpanC1ERKNS_10UnicodeSetERKNS_7UVectorEj(ptr noundef nonnull align 8 dereferenceable(392) %call8, ptr noundef nonnull align 8 dereferenceable(200) %this, ptr noundef nonnull align 8 dereferenceable(40) %6, i32 noundef 63)
          to label %if.else unwind label %lpad

if.then10:                                        ; preds = %if.then7
  store ptr null, ptr %stringSpan.i, align 8
  %7 = load ptr, ptr %bmpSet.i, align 8
  %cmp.not.i.i.i = icmp eq ptr %7, null
  br i1 %cmp.not.i.i.i, label %if.end.i.i, label %_ZN6icu_7510UnicodeSet10setToBogusEv.exit

if.end.i.i:                                       ; preds = %if.then10
  %list.i.i = getelementptr inbounds i8, ptr %this, i64 16
  %8 = load ptr, ptr %list.i.i, align 8
  store i32 1114112, ptr %8, align 4
  %len.i.i = getelementptr inbounds i8, ptr %this, i64 28
  store i32 1, ptr %len.i.i, align 4
  %pat.i.i.i = getelementptr inbounds i8, ptr %this, i64 64
  %9 = load ptr, ptr %pat.i.i.i, align 8
  %tobool.not.i.i.i = icmp eq ptr %9, null
  br i1 %tobool.not.i.i.i, label %_ZN6icu_7510UnicodeSet14releasePatternEv.exit.i.i, label %if.then.i.i.i

if.then.i.i.i:                                    ; preds = %if.end.i.i
  tail call void @uprv_free_75(ptr noundef nonnull %9)
  store ptr null, ptr %pat.i.i.i, align 8
  %patLen.i.i.i = getelementptr inbounds i8, ptr %this, i64 72
  store i32 0, ptr %patLen.i.i.i, align 8
  br label %_ZN6icu_7510UnicodeSet14releasePatternEv.exit.i.i

_ZN6icu_7510UnicodeSet14releasePatternEv.exit.i.i: ; preds = %if.then.i.i.i, %if.end.i.i
  %10 = load ptr, ptr %strings.i, align 8
  %cmp.not.i.i = icmp eq ptr %10, null
  br i1 %cmp.not.i.i, label %_ZN6icu_7510UnicodeSet10setToBogusEv.exit, label %if.then2.i.i

if.then2.i.i:                                     ; preds = %_ZN6icu_7510UnicodeSet14releasePatternEv.exit.i.i
  tail call void @_ZN6icu_757UVector17removeAllElementsEv(ptr noundef nonnull align 8 dereferenceable(40) %10)
  br label %_ZN6icu_7510UnicodeSet10setToBogusEv.exit

_ZN6icu_7510UnicodeSet10setToBogusEv.exit:        ; preds = %if.then10, %_ZN6icu_7510UnicodeSet14releasePatternEv.exit.i.i, %if.then2.i.i
  store i8 1, ptr %fFlags.i, align 8
  br label %return

lpad:                                             ; preds = %new.notnull
  %11 = landingpad { ptr, i32 }
          cleanup
  br label %eh.resume

if.else:                                          ; preds = %new.notnull
  store ptr %call8, ptr %stringSpan.i, align 8
  %maxLength16.i = getelementptr inbounds i8, ptr %call8, i64 252
  %12 = load i32, ptr %maxLength16.i, align 4
  %cmp.i.not = icmp eq i32 %12, 0
  br i1 %cmp.i.not, label %if.end18.thread, label %return

if.end18.thread:                                  ; preds = %if.else
  tail call void @_ZN6icu_7520UnicodeSetStringSpanD1Ev(ptr noundef nonnull align 8 dereferenceable(392) %call8) #22
  tail call void @_ZN6icu_757UMemorydlEPv(ptr noundef nonnull %call8) #22
  store ptr null, ptr %stringSpan.i, align 8
  br label %if.then21

if.end18:                                         ; preds = %if.then, %_ZNK6icu_7510UnicodeSet10hasStringsEv.exit
  %.pr.pr = load ptr, ptr %stringSpan.i, align 8
  %cmp20 = icmp eq ptr %.pr.pr, null
  br i1 %cmp20, label %if.then21, label %return

if.then21:                                        ; preds = %if.end18.thread, %if.end18
  %call22 = tail call noundef ptr @_ZN6icu_757UMemorynwEm(i64 noundef 872) #22
  %new.isnull23 = icmp eq ptr %call22, null
  br i1 %new.isnull23, label %if.then35, label %new.notnull24

new.notnull24:                                    ; preds = %if.then21
  %list = getelementptr inbounds i8, ptr %this, i64 16
  %13 = load ptr, ptr %list, align 8
  %len = getelementptr inbounds i8, ptr %this, i64 28
  %14 = load i32, ptr %len, align 4
  invoke void @_ZN6icu_756BMPSetC1EPKii(ptr noundef nonnull align 8 dereferenceable(868) %call22, ptr noundef %13, i32 noundef %14)
          to label %new.cont32 unwind label %lpad27

new.cont32:                                       ; preds = %new.notnull24
  store ptr %call22, ptr %bmpSet.i, align 8
  br label %return

if.then35:                                        ; preds = %if.then21
  store ptr null, ptr %bmpSet.i, align 8
  tail call void @_ZN6icu_7510UnicodeSet10setToBogusEv(ptr noundef nonnull align 8 dereferenceable(200) %this)
  br label %return

lpad27:                                           ; preds = %new.notnull24
  %15 = landingpad { ptr, i32 }
          cleanup
  br label %eh.resume

return:                                           ; preds = %if.else, %new.cont32, %entry, %land.lhs.true, %if.then35, %if.end18, %_ZN6icu_7510UnicodeSet10setToBogusEv.exit
  ret ptr %this

eh.resume:                                        ; preds = %lpad27, %lpad
  %call22.sink = phi ptr [ %call22, %lpad27 ], [ %call8, %lpad ]
  %.pn = phi { ptr, i32 } [ %15, %lpad27 ], [ %11, %lpad ]
  tail call void @_ZN6icu_757UMemorydlEPv(ptr noundef nonnull %call22.sink) #22
  resume { ptr, i32 } %.pn
}